; Function Attrs: nounwind uwtable
define void @Gia_ManIncrementTravId(ptr noundef captures(none) %0) local_unnamed_addr #2 {
  %2 = getelementptr inbounds nuw i8, ptr %0, i64 616
  %3 = load ptr, ptr %2, align 8
  %4 = icmp eq ptr %3, null
  br i1 %4, label %.thread, label %11

.thread:                                          ; preds = %1
  %5 = getelementptr i8, ptr %0, i64 24
  %.val = load i32, ptr %5, align 8
  %6 = add nsw i32 %.val, 100
  %7 = getelementptr inbounds nuw i8, ptr %0, i64 624
  store i32 %6, ptr %7, align 8
  %8 = sext i32 %6 to i64
  %9 = tail call noalias ptr @calloc(i64 noundef %8, i64 noundef 4) #38
  store ptr %9, ptr %2, align 8
  %10 = getelementptr inbounds nuw i8, ptr %0, i64 176
  store i32 0, ptr %10, align 8
  br label %._crit_edge

11:                                               ; preds = %1
  %.phi.trans.insert = getelementptr inbounds nuw i8, ptr %0, i64 624
  %.pre = load i32, ptr %.phi.trans.insert, align 8
  %.phi.trans.insert21 = getelementptr i8, ptr %0, i64 24
  %.val1819.pre = load i32, ptr %.phi.trans.insert21, align 8
  %12 = getelementptr inbounds nuw i8, ptr %0, i64 624
  %13 = getelementptr i8, ptr %0, i64 24
  %14 = icmp slt i32 %.pre, %.val1819.pre
  br i1 %14, label %.lr.ph, label %._crit_edge

.lr.ph:                                           ; preds = %11, %24
  %15 = phi ptr [ %26, %24 ], [ %3, %11 ]
  %16 = phi i32 [ %25, %24 ], [ %.pre, %11 ]
  %17 = shl nsw i32 %16, 1
  store i32 %17, ptr %12, align 8
  %.not = icmp eq ptr %15, null
  %18 = sext i32 %17 to i64
  %19 = shl nsw i64 %18, 2
  br i1 %.not, label %22, label %20

20:                                               ; preds = %.lr.ph
  %21 = tail call ptr @realloc(ptr noundef nonnull %15, i64 noundef %19) #39
  %.pre23 = load i32, ptr %12, align 8
  %.pre24 = sext i32 %.pre23 to i64
  br label %24

22:                                               ; preds = %.lr.ph
  %23 = tail call noalias ptr @malloc(i64 noundef %19) #40
  br label %24

24:                                               ; preds = %22, %20
  %.pre-phi = phi i64 [ %18, %22 ], [ %.pre24, %20 ]
  %25 = phi i32 [ %17, %22 ], [ %.pre23, %20 ]
  %26 = phi ptr [ %23, %22 ], [ %21, %20 ]
  store ptr %26, ptr %2, align 8
  %27 = sdiv i32 %25, 2
  %28 = sext i32 %27 to i64
  %29 = getelementptr inbounds i32, ptr %26, i64 %28
  %30 = shl nsw i64 %.pre-phi, 1
  %31 = and i64 %30, 9223372036854775806
  tail call void @llvm.memset.p0.i64(ptr align 4 %29, i8 0, i64 %31, i1 false)
  %.val18 = load i32, ptr %13, align 8
  %32 = icmp slt i32 %25, %.val18
  br i1 %32, label %.lr.ph, label %._crit_edge, !llvm.loop !7

._crit_edge:                                      ; preds = %24, %.thread, %11
  %33 = getelementptr inbounds nuw i8, ptr %0, i64 176
  %34 = load i32, ptr %33, align 8
  %35 = add nsw i32 %34, 1
  store i32 %35, ptr %33, align 8
  ret void
}